; Function Attrs: nounwind uwtable
define ptr @bufferevent_pair_get_partner(ptr noundef %0) local_unnamed_addr #0 {
  %2 = getelementptr inbounds nuw i8, ptr %0, i64 8
  %3 = load ptr, ptr %2, align 8
  %4 = icmp eq ptr %3, @bufferevent_ops_pair
  br i1 %4, label %5, label %12

5:                                                ; preds = %1
  tail call void @bufferevent_incref_and_lock_(ptr noundef nonnull %0) #4
  %6 = getelementptr inbounds nuw i8, ptr %0, i64 520
  %7 = load ptr, ptr %6, align 8
  %.not.i = icmp eq ptr %7, null
  br i1 %.not.i, label %decref_and_unlock.exit, label %incref_and_lock.exit

incref_and_lock.exit:                             ; preds = %5
  tail call void @bufferevent_incref_and_lock_(ptr noundef nonnull %7) #4
  %.pr = load ptr, ptr %6, align 8
  %.not = icmp eq ptr %.pr, null
  br i1 %.not, label %decref_and_unlock.exit, label %8

8:                                                ; preds = %incref_and_lock.exit
  %9 = tail call i32 @bufferevent_decref_and_unlock_(ptr noundef nonnull %.pr) #4
  br label %decref_and_unlock.exit

decref_and_unlock.exit:                           ; preds = %5, %incref_and_lock.exit, %8
  %10 = phi ptr [ null, %incref_and_lock.exit ], [ %.pr, %8 ], [ null, %5 ]
  %11 = tail call i32 @bufferevent_decref_and_unlock_(ptr noundef nonnull %0) #4
  br label %12

12:                                               ; preds = %1, %decref_and_unlock.exit
  %.08 = phi ptr [ %10, %decref_and_unlock.exit ], [ null, %1 ]
  ret ptr %.08
}